target datalayout = "e-m:e-p270:32:32-p271:32:32-p272:64:64-i64:64-i128:128-f80:128-n8:16:32:64-S128"
target triple = "x86_64-pc-linux-gnu"

%struct.AVRational = type { i32, i32 }
%struct.MXFTrack = type { %struct.MXFMetadataSet, ptr, [16 x i8], i32, ptr, [4 x i8], %struct.AVRational, i32, i64, i64, i32, i32, i32, i32 }
%struct.MXFMetadataSet = type { [16 x i8], i64 }
%struct.MXFPackage = type { %struct.MXFMetadataSet, [16 x i8], [16 x i8], ptr, i32, [16 x i8], ptr, ptr, i32 }
%struct.MXFSequence = type { %struct.MXFMetadataSet, [16 x i8], ptr, i32, i64, i8 }
%struct.MXFDescriptor = type { %struct.MXFMetadataSet, [16 x i8], [16 x i8], [16 x i8], %struct.AVRational, %struct.AVRational, i32, i32, i32, [2 x i32], i32, i32, i32, i64, i32, i32, i32, i32, i32, i32, ptr, i32, ptr, i32, i32, ptr, i32, i32, [16 x i8], [16 x i8], [16 x i8], ptr, i64, ptr, i64 }
%struct.MXFIndexTableSegment = type { %struct.MXFMetadataSet, i32, i32, i32, %struct.AVRational, i64, i64, ptr, ptr, ptr, i32, i64 }
%struct.MXFEssenceGroup = type { %struct.MXFMetadataSet, ptr, i32, i64 }
%struct.MXFTaggedValue = type { %struct.MXFMetadataSet, ptr, ptr }
%struct.MXFMCASubDescriptor = type { %struct.MXFMetadataSet, [16 x i8], [16 x i8], [16 x i8], ptr, i32, [16 x i8], i32, ptr }
%struct.MXFFFV1SubDescriptor = type { %struct.MXFMetadataSet, ptr, i32 }

; Function Attrs: nounwind uwtable
define internal void @mxf_free_metadataset(ptr noundef %0, i32 noundef %1) #0 {
  %3 = alloca ptr, align 8
  %4 = alloca i32, align 4
  %5 = alloca ptr, align 8
  store ptr %0, ptr %3, align 8, !tbaa !345
  store i32 %1, ptr %4, align 4, !tbaa !47
  call void @llvm.lifetime.start.p0(i64 8, ptr %5) #13
  %6 = load i32, ptr %4, align 4, !tbaa !47
  switch i32 %6, label %72 [
    i32 8, label %7
    i32 7, label %7
    i32 24, label %23
    i32 21, label %27
    i32 22, label %27
    i32 23, label %27
    i32 6, label %34
    i32 17, label %38
    i32 2, label %42
    i32 1, label %42
    i32 18, label %52
    i32 9, label %59
    i32 15, label %63
  ]

7:                                                ; preds = %2, %2
  %8 = load ptr, ptr %3, align 8, !tbaa !345
  %9 = load ptr, ptr %8, align 8, !tbaa !205
  %10 = getelementptr inbounds nuw %struct.MXFDescriptor, ptr %9, i32 0, i32 25
  call void @av_freep(ptr noundef %10)
  %11 = load ptr, ptr %3, align 8, !tbaa !345
  %12 = load ptr, ptr %11, align 8, !tbaa !205
  %13 = getelementptr inbounds nuw %struct.MXFDescriptor, ptr %12, i32 0, i32 31
  call void @av_freep(ptr noundef %13)
  %14 = load ptr, ptr %3, align 8, !tbaa !345
  %15 = load ptr, ptr %14, align 8, !tbaa !205
  %16 = getelementptr inbounds nuw %struct.MXFDescriptor, ptr %15, i32 0, i32 33
  call void @av_freep(ptr noundef %16)
  %17 = load ptr, ptr %3, align 8, !tbaa !345
  %18 = load ptr, ptr %17, align 8, !tbaa !205
  %19 = getelementptr inbounds nuw %struct.MXFDescriptor, ptr %18, i32 0, i32 20
  call void @av_freep(ptr noundef %19)
  %20 = load ptr, ptr %3, align 8, !tbaa !345
  %21 = load ptr, ptr %20, align 8, !tbaa !205
  %22 = getelementptr inbounds nuw %struct.MXFDescriptor, ptr %21, i32 0, i32 22
  call void @av_freep(ptr noundef %22)
  br label %73

23:                                               ; preds = %2
  %24 = load ptr, ptr %3, align 8, !tbaa !345
  %25 = load ptr, ptr %24, align 8, !tbaa !205
  %26 = getelementptr inbounds nuw %struct.MXFFFV1SubDescriptor, ptr %25, i32 0, i32 1
  call void @av_freep(ptr noundef %26)
  br label %73

27:                                               ; preds = %2, %2, %2
  %28 = load ptr, ptr %3, align 8, !tbaa !345
  %29 = load ptr, ptr %28, align 8, !tbaa !205
  %30 = getelementptr inbounds nuw %struct.MXFMCASubDescriptor, ptr %29, i32 0, i32 8
  call void @av_freep(ptr noundef %30)
  %31 = load ptr, ptr %3, align 8, !tbaa !345
  %32 = load ptr, ptr %31, align 8, !tbaa !205
  %33 = getelementptr inbounds nuw %struct.MXFMCASubDescriptor, ptr %32, i32 0, i32 4
  call void @av_freep(ptr noundef %33)
  br label %73

34:                                               ; preds = %2
  %35 = load ptr, ptr %3, align 8, !tbaa !345
  %36 = load ptr, ptr %35, align 8, !tbaa !205
  %37 = getelementptr inbounds nuw %struct.MXFSequence, ptr %36, i32 0, i32 2
  call void @av_freep(ptr noundef %37)
  br label %73

38:                                               ; preds = %2
  %39 = load ptr, ptr %3, align 8, !tbaa !345
  %40 = load ptr, ptr %39, align 8, !tbaa !205
  %41 = getelementptr inbounds nuw %struct.MXFEssenceGroup, ptr %40, i32 0, i32 1
  call void @av_freep(ptr noundef %41)
  br label %73

42:                                               ; preds = %2, %2
  %43 = load ptr, ptr %3, align 8, !tbaa !345
  %44 = load ptr, ptr %43, align 8, !tbaa !205
  %45 = getelementptr inbounds nuw %struct.MXFPackage, ptr %44, i32 0, i32 3
  call void @av_freep(ptr noundef %45)
  %46 = load ptr, ptr %3, align 8, !tbaa !345
  %47 = load ptr, ptr %46, align 8, !tbaa !205
  %48 = getelementptr inbounds nuw %struct.MXFPackage, ptr %47, i32 0, i32 6
  call void @av_freep(ptr noundef %48)
  %49 = load ptr, ptr %3, align 8, !tbaa !345
  %50 = load ptr, ptr %49, align 8, !tbaa !205
  %51 = getelementptr inbounds nuw %struct.MXFPackage, ptr %50, i32 0, i32 7
  call void @av_freep(ptr noundef %51)
  br label %73

52:                                               ; preds = %2
  %53 = load ptr, ptr %3, align 8, !tbaa !345
  %54 = load ptr, ptr %53, align 8, !tbaa !205
  %55 = getelementptr inbounds nuw %struct.MXFTaggedValue, ptr %54, i32 0, i32 1
  call void @av_freep(ptr noundef %55)
  %56 = load ptr, ptr %3, align 8, !tbaa !345
  %57 = load ptr, ptr %56, align 8, !tbaa !205
  %58 = getelementptr inbounds nuw %struct.MXFTaggedValue, ptr %57, i32 0, i32 2
  call void @av_freep(ptr noundef %58)
  br label %73

59:                                               ; preds = %2
  %60 = load ptr, ptr %3, align 8, !tbaa !345
  %61 = load ptr, ptr %60, align 8, !tbaa !205
  %62 = getelementptr inbounds nuw %struct.MXFTrack, ptr %61, i32 0, i32 4
  call void @av_freep(ptr noundef %62)
  br label %73

63:                                               ; preds = %2
  %64 = load ptr, ptr %3, align 8, !tbaa !345
  %65 = load ptr, ptr %64, align 8, !tbaa !205
  store ptr %65, ptr %5, align 8, !tbaa !248
  %66 = load ptr, ptr %5, align 8, !tbaa !248
  %67 = getelementptr inbounds nuw %struct.MXFIndexTableSegment, ptr %66, i32 0, i32 7
  call void @av_freep(ptr noundef %67)
  %68 = load ptr, ptr %5, align 8, !tbaa !248
  %69 = getelementptr inbounds nuw %struct.MXFIndexTableSegment, ptr %68, i32 0, i32 8
  call void @av_freep(ptr noundef %69)
  %70 = load ptr, ptr %5, align 8, !tbaa !248
  %71 = getelementptr inbounds nuw %struct.MXFIndexTableSegment, ptr %70, i32 0, i32 9
  call void @av_freep(ptr noundef %71)
  br label %72

72:                                               ; preds = %2, %63
  br label %73

73:                                               ; preds = %72, %59, %52, %42, %38, %34, %27, %23, %7
  %74 = load ptr, ptr %3, align 8, !tbaa !345
  call void @av_freep(ptr noundef %74)
  call void @llvm.lifetime.end.p0(i64 8, ptr %5) #13
  ret void
}