; Function Attrs: nounwind uwtable
define internal fastcc void @mxf_free_metadataset(ptr noundef %0, i32 noundef %1) unnamed_addr #1 {
  switch i32 %1, label %48 [
    i32 8, label %3
    i32 7, label %3
    i32 24, label %14
    i32 21, label %17
    i32 22, label %17
    i32 23, label %17
    i32 6, label %22
    i32 17, label %25
    i32 2, label %28
    i32 1, label %28
    i32 18, label %35
    i32 9, label %40
    i32 15, label %43
  ]

3:                                                ; preds = %2, %2
  %4 = load ptr, ptr %0, align 8, !tbaa !66
  %5 = getelementptr inbounds nuw i8, ptr %4, i64 184
  tail call void @av_freep(ptr noundef nonnull %5) #15
  %6 = load ptr, ptr %0, align 8, !tbaa !66
  %7 = getelementptr inbounds nuw i8, ptr %6, i64 248
  tail call void @av_freep(ptr noundef nonnull %7) #15
  %8 = load ptr, ptr %0, align 8, !tbaa !66
  %9 = getelementptr inbounds nuw i8, ptr %8, i64 264
  tail call void @av_freep(ptr noundef nonnull %9) #15
  %10 = load ptr, ptr %0, align 8, !tbaa !66
  %11 = getelementptr inbounds nuw i8, ptr %10, i64 152
  tail call void @av_freep(ptr noundef nonnull %11) #15
  %12 = load ptr, ptr %0, align 8, !tbaa !66
  %13 = getelementptr inbounds nuw i8, ptr %12, i64 168
  br label %.sink.split

14:                                               ; preds = %2
  %15 = load ptr, ptr %0, align 8, !tbaa !66
  %16 = getelementptr inbounds nuw i8, ptr %15, i64 24
  br label %.sink.split

17:                                               ; preds = %2, %2, %2
  %18 = load ptr, ptr %0, align 8, !tbaa !66
  %19 = getelementptr inbounds nuw i8, ptr %18, i64 104
  tail call void @av_freep(ptr noundef nonnull %19) #15
  %20 = load ptr, ptr %0, align 8, !tbaa !66
  %21 = getelementptr inbounds nuw i8, ptr %20, i64 72
  br label %.sink.split

22:                                               ; preds = %2
  %23 = load ptr, ptr %0, align 8, !tbaa !66
  %24 = getelementptr inbounds nuw i8, ptr %23, i64 40
  br label %.sink.split

25:                                               ; preds = %2
  %26 = load ptr, ptr %0, align 8, !tbaa !66
  %27 = getelementptr inbounds nuw i8, ptr %26, i64 24
  br label %.sink.split

28:                                               ; preds = %2, %2
  %29 = load ptr, ptr %0, align 8, !tbaa !66
  %30 = getelementptr inbounds nuw i8, ptr %29, i64 56
  tail call void @av_freep(ptr noundef nonnull %30) #15
  %31 = load ptr, ptr %0, align 8, !tbaa !66
  %32 = getelementptr inbounds nuw i8, ptr %31, i64 88
  tail call void @av_freep(ptr noundef nonnull %32) #15
  %33 = load ptr, ptr %0, align 8, !tbaa !66
  %34 = getelementptr inbounds nuw i8, ptr %33, i64 96
  br label %.sink.split

35:                                               ; preds = %2
  %36 = load ptr, ptr %0, align 8, !tbaa !66
  %37 = getelementptr inbounds nuw i8, ptr %36, i64 24
  tail call void @av_freep(ptr noundef nonnull %37) #15
  %38 = load ptr, ptr %0, align 8, !tbaa !66
  %39 = getelementptr inbounds nuw i8, ptr %38, i64 32
  br label %.sink.split

40:                                               ; preds = %2
  %41 = load ptr, ptr %0, align 8, !tbaa !66
  %42 = getelementptr inbounds nuw i8, ptr %41, i64 56
  br label %.sink.split

43:                                               ; preds = %2
  %44 = load ptr, ptr %0, align 8, !tbaa !66
  %45 = getelementptr inbounds nuw i8, ptr %44, i64 64
  tail call void @av_freep(ptr noundef nonnull %45) #15
  %46 = getelementptr inbounds nuw i8, ptr %44, i64 72
  tail call void @av_freep(ptr noundef nonnull %46) #15
  %47 = getelementptr inbounds nuw i8, ptr %44, i64 80
  br label %.sink.split

.sink.split:                                      ; preds = %3, %14, %17, %22, %25, %28, %35, %40, %43
  %.sink = phi ptr [ %47, %43 ], [ %42, %40 ], [ %39, %35 ], [ %34, %28 ], [ %27, %25 ], [ %24, %22 ], [ %21, %17 ], [ %16, %14 ], [ %13, %3 ]
  tail call void @av_freep(ptr noundef nonnull %.sink) #15
  br label %48

48:                                               ; preds = %.sink.split, %2
  tail call void @av_freep(ptr noundef %0) #15
  ret void
}